; Function Attrs: mustprogress uwtable
define internal fastcc void @"_ZZN9grpc_core12_GLOBAL__N_120Chttp2ServerListener8OnAcceptEPvP13grpc_endpointP12grpc_pollsetP24grpc_tcp_server_acceptorENK3$_0clEN4absl12lts_202308026StatusE"(ptr nocapture noundef nonnull readonly align 8 dereferenceable(16) %this, i64 %error.0.val) unnamed_addr #3 align 2 personality ptr @__gxx_personality_v0 {
entry:
  %agg.tmp = alloca %"class.absl::lts_20230802::Status", align 8
  %0 = load ptr, ptr %this, align 8
  %1 = load ptr, ptr %0, align 8
  store i64 %error.0.val, ptr %agg.tmp, align 8
  %and.i.i.i = and i64 %error.0.val, 1
  %cmp.i.i.i = icmp eq i64 %and.i.i.i, 0
  br i1 %cmp.i.i.i, label %_ZN4absl12lts_202308026StatusC2ERKS1_.exit, label %if.then.i.i

if.then.i.i:                                      ; preds = %entry
  %sub.i.i.i = add nsw i64 %error.0.val, -1
  %2 = inttoptr i64 %sub.i.i.i to ptr
  %3 = atomicrmw add ptr %2, i32 1 monotonic, align 4
  br label %_ZN4absl12lts_202308026StatusC2ERKS1_.exit

_ZN4absl12lts_202308026StatusC2ERKS1_.exit:       ; preds = %entry, %if.then.i.i
  invoke void @_Z22grpc_endpoint_shutdownP13grpc_endpointN4absl12lts_202308026StatusE(ptr noundef %1, ptr noundef nonnull %agg.tmp)
          to label %invoke.cont unwind label %lpad

invoke.cont:                                      ; preds = %_ZN4absl12lts_202308026StatusC2ERKS1_.exit
  %4 = load i64, ptr %agg.tmp, align 8
  %and.i.i.i1 = and i64 %4, 1
  %cmp.i.i.i2 = icmp eq i64 %and.i.i.i1, 0
  br i1 %cmp.i.i.i2, label %_ZN4absl12lts_202308026StatusD2Ev.exit, label %if.then.i.i3

if.then.i.i3:                                     ; preds = %invoke.cont
  invoke void @_ZN4absl12lts_202308026Status15UnrefNonInlinedEm(i64 noundef %4)
          to label %_ZN4absl12lts_202308026StatusD2Ev.exit unwind label %terminate.lpad.i

terminate.lpad.i:                                 ; preds = %if.then.i.i3
  %5 = landingpad { ptr, i32 }
          catch ptr null
  %6 = extractvalue { ptr, i32 } %5, 0
  call void @__clang_call_terminate(ptr %6) #24
  unreachable

_ZN4absl12lts_202308026StatusD2Ev.exit:           ; preds = %invoke.cont, %if.then.i.i3
  %7 = load ptr, ptr %this, align 8
  %8 = load ptr, ptr %7, align 8
  call void @_Z21grpc_endpoint_destroyP13grpc_endpoint(ptr noundef %8)
  %9 = getelementptr inbounds i8, ptr %this, i64 8
  %10 = load ptr, ptr %9, align 8
  %11 = load ptr, ptr %10, align 8
  call void @gpr_free(ptr noundef %11)
  ret void

lpad:                                             ; preds = %_ZN4absl12lts_202308026StatusC2ERKS1_.exit
  %12 = landingpad { ptr, i32 }
          cleanup
  call void @_ZN4absl12lts_202308026StatusD2Ev(ptr noundef nonnull align 8 dereferenceable(8) %agg.tmp) #25
  resume { ptr, i32 } %12
}